; Function Attrs: mustprogress nofree nounwind willreturn uwtable
define noalias noundef ptr @Gia_AigerWriteMappingSimple(ptr noundef readonly captures(none) %0) local_unnamed_addr #4 {
  %2 = getelementptr inbounds nuw i8, ptr %0, i64 264
  %3 = load ptr, ptr %2, align 8, !tbaa !51
  %4 = getelementptr i8, ptr %3, i64 4
  %.val = load i32, ptr %4, align 4, !tbaa !56
  %5 = shl nsw i32 %.val, 2
  %6 = sext i32 %5 to i64
  %7 = tail call noalias ptr @malloc(i64 noundef %6) #16
  %8 = getelementptr i8, ptr %3, i64 8
  %.val8 = load ptr, ptr %8, align 8, !tbaa !52
  %9 = sext i32 %.val to i64
  %10 = shl nsw i64 %9, 2
  tail call void @llvm.memcpy.p0.p0.i64(ptr align 1 %7, ptr align 4 %.val8, i64 %10, i1 false)
  %11 = tail call noalias dereferenceable_or_null(16) ptr @malloc(i64 noundef 16) #16
  %12 = getelementptr inbounds nuw i8, ptr %11, i64 4
  store i32 %5, ptr %12, align 4, !tbaa !45
  store i32 %5, ptr %11, align 8, !tbaa !47
  %13 = getelementptr inbounds nuw i8, ptr %11, i64 8
  store ptr %7, ptr %13, align 8, !tbaa !48
  ret ptr %11
}